; Function Attrs: mustprogress nofree norecurse nosync nounwind willreturn memory(readwrite, inaccessiblemem: none) uwtable
define hidden void @_ZN5zxing9BitMatrix10getRowBoolEiPb(ptr nocapture noundef nonnull readonly align 8 dereferenceable(346) %0, i32 noundef %1, ptr nocapture noundef writeonly %2) local_unnamed_addr #4 align 2 {
  %4 = getelementptr inbounds i8, ptr %0, i64 336
  %5 = load ptr, ptr %4, align 8
  %6 = getelementptr inbounds i8, ptr %5, i64 16
  %7 = sext i32 %1 to i64
  %8 = load ptr, ptr %6, align 8
  %9 = getelementptr inbounds i32, ptr %8, i64 %7
  %10 = load i32, ptr %9, align 4
  %11 = getelementptr inbounds i8, ptr %0, i64 312
  %12 = load ptr, ptr %11, align 8
  %13 = getelementptr inbounds i8, ptr %12, i64 16
  %14 = load ptr, ptr %13, align 8
  %15 = sext i32 %10 to i64
  %16 = getelementptr inbounds i8, ptr %14, i64 %15
  %17 = getelementptr inbounds i8, ptr %0, i64 20
  %18 = load i32, ptr %17, align 4
  %19 = sext i32 %18 to i64
  tail call void @llvm.memcpy.p0.p0.i64(ptr align 1 %2, ptr align 1 %16, i64 %19, i1 false)
  ret void
}